target datalayout = "e-m:e-p270:32:32-p271:32:32-p272:64:64-i64:64-i128:128-f80:128-n8:16:32:64-S128"
target triple = "x86_64-pc-linux-gnu"

%"class.std::ios_base" = type { ptr, i64, i64, i32, i32, i32, ptr, %"struct.std::ios_base::_Words", [8 x %"struct.std::ios_base::_Words"], i32, ptr, %"class.std::locale" }
%"struct.std::ios_base::_Words" = type { ptr, i64 }
%"class.std::locale" = type { ptr }
%"class.testing::Message" = type { %"class.testing::internal::scoped_ptr" }
%"class.testing::internal::scoped_ptr" = type { ptr }
%"struct.std::_Setprecision" = type { i32 }

; Function Attrs: mustprogress nounwind uwtable
define noundef zeroext i1 @_ZN7testing8internal6IsTrueEb(i1 noundef zeroext %0) #7 {
  %2 = alloca i8, align 1
  %3 = zext i1 %0 to i8
  store i8 %3, ptr %2, align 1, !tbaa !13
  %4 = load i8, ptr %2, align 1, !tbaa !13, !range !17, !noundef !18
  %5 = trunc i8 %4 to i1
  ret i1 %5
}

; Function Attrs: noinline noreturn nounwind uwtable
define linkonce_odr hidden void @__clang_call_terminate(ptr noundef %0) #13 comdat {
  %2 = call ptr @__cxa_begin_catch(ptr %0) #3
  call void @_ZSt9terminatev() #28
  unreachable
}

; Function Attrs: mustprogress nounwind uwtable
define linkonce_odr hidden void @_ZN7testing8internal10scoped_ptrINSt7__cxx1118basic_stringstreamIcSt11char_traitsIcESaIcEEEE5resetEPS7_(ptr noundef nonnull align 8 dereferenceable(8) %0, ptr noundef %1) #7 comdat align 2 {
  %3 = alloca ptr, align 8
  %4 = alloca ptr, align 8
  store ptr %0, ptr %3, align 8, !tbaa !201
  store ptr %1, ptr %4, align 8, !tbaa !199
  %5 = load ptr, ptr %3, align 8
  %6 = load ptr, ptr %4, align 8, !tbaa !199
  %7 = getelementptr inbounds nuw %"class.testing::internal::scoped_ptr", ptr %5, i32 0, i32 0
  %8 = load ptr, ptr %7, align 8, !tbaa !203
  %9 = icmp ne ptr %6, %8
  br i1 %9, label %10, label %24

10:                                               ; preds = %2
  %11 = call noundef zeroext i1 @_ZN7testing8internal6IsTrueEb(i1 noundef zeroext true)
  br i1 %11, label %12, label %21

12:                                               ; preds = %10
  %13 = getelementptr inbounds nuw %"class.testing::internal::scoped_ptr", ptr %5, i32 0, i32 0
  %14 = load ptr, ptr %13, align 8, !tbaa !203
  %15 = icmp eq ptr %14, null
  br i1 %15, label %20, label %16

16:                                               ; preds = %12
  %17 = load ptr, ptr %14, align 8, !tbaa !33
  %18 = getelementptr inbounds ptr, ptr %17, i64 1
  %19 = load ptr, ptr %18, align 8
  call void %19(ptr noundef nonnull align 8 dereferenceable(128) %14) #3
  br label %20

20:                                               ; preds = %16, %12
  br label %21

21:                                               ; preds = %20, %10
  %22 = load ptr, ptr %4, align 8, !tbaa !199
  %23 = getelementptr inbounds nuw %"class.testing::internal::scoped_ptr", ptr %5, i32 0, i32 0
  store ptr %22, ptr %23, align 8, !tbaa !203
  br label %24

24:                                               ; preds = %21, %2
  ret void
}

; Function Attrs: mustprogress nounwind uwtable
define linkonce_odr hidden noundef i64 @_ZNSt8ios_base9precisionEl(ptr noundef nonnull align 8 dereferenceable(216) %0, i64 noundef %1) #7 comdat align 2 {
  %3 = alloca ptr, align 8
  %4 = alloca i64, align 8
  %5 = alloca i64, align 8
  store ptr %0, ptr %3, align 8, !tbaa !321
  store i64 %1, ptr %4, align 8, !tbaa !78
  %6 = load ptr, ptr %3, align 8
  call void @llvm.lifetime.start.p0(i64 8, ptr %5) #3
  %7 = getelementptr inbounds nuw %"class.std::ios_base", ptr %6, i32 0, i32 1
  %8 = load i64, ptr %7, align 8, !tbaa !1162
  store i64 %8, ptr %5, align 8, !tbaa !78
  %9 = load i64, ptr %4, align 8, !tbaa !78
  %10 = getelementptr inbounds nuw %"class.std::ios_base", ptr %6, i32 0, i32 1
  store i64 %9, ptr %10, align 8, !tbaa !1162
  %11 = load i64, ptr %5, align 8, !tbaa !78
  call void @llvm.lifetime.end.p0(i64 8, ptr %5) #3
  ret i64 %11
}

; Function Attrs: mustprogress nounwind uwtable
define linkonce_odr hidden void @_ZN7testing8internal10scoped_ptrINSt7__cxx1118basic_stringstreamIcSt11char_traitsIcESaIcEEEED2Ev(ptr noundef nonnull align 8 dereferenceable(8) %0) unnamed_addr #7 comdat align 2 personality ptr @__gxx_personality_v0 {
  %2 = alloca ptr, align 8
  store ptr %0, ptr %2, align 8, !tbaa !201
  %3 = load ptr, ptr %2, align 8
  invoke void @_ZN7testing8internal10scoped_ptrINSt7__cxx1118basic_stringstreamIcSt11char_traitsIcESaIcEEEE5resetEPS7_(ptr noundef nonnull align 8 dereferenceable(8) %3, ptr noundef null)
          to label %4 unwind label %5

4:                                                ; preds = %1
  ret void

5:                                                ; preds = %1
  %6 = landingpad { ptr, i32 }
          catch ptr null
  %7 = extractvalue { ptr, i32 } %6, 0
  call void @__clang_call_terminate(ptr %7) #28
  unreachable
}

; Function Attrs: inlinehint mustprogress uwtable
define available_externally noundef nonnull align 8 dereferenceable(8) ptr @_ZStlsIcSt11char_traitsIcEERSt13basic_ostreamIT_T0_ES6_St13_Setprecision(ptr noundef nonnull align 8 dereferenceable(8) %0, i32 %1) #8 {
  %3 = alloca %"struct.std::_Setprecision", align 4
  %4 = alloca ptr, align 8
  %5 = getelementptr inbounds nuw %"struct.std::_Setprecision", ptr %3, i32 0, i32 0
  store i32 %1, ptr %5, align 4
  store ptr %0, ptr %4, align 8, !tbaa !31
  %6 = load ptr, ptr %4, align 8, !tbaa !31
  %7 = load ptr, ptr %6, align 8, !tbaa !33
  %8 = getelementptr i8, ptr %7, i64 -24
  %9 = load i64, ptr %8, align 8
  %10 = getelementptr inbounds i8, ptr %6, i64 %9
  %11 = getelementptr inbounds nuw %"struct.std::_Setprecision", ptr %3, i32 0, i32 0
  %12 = load i32, ptr %11, align 4, !tbaa !205
  %13 = sext i32 %12 to i64
  %14 = call noundef i64 @_ZNSt8ios_base9precisionEl(ptr noundef nonnull align 8 dereferenceable(216) %10, i64 noundef %13)
  %15 = load ptr, ptr %4, align 8, !tbaa !31
  ret ptr %15
}

; Function Attrs: inlinehint mustprogress nounwind uwtable
define linkonce_odr i32 @_ZSt12setprecisioni(i32 noundef %0) #4 comdat {
  %2 = alloca %"struct.std::_Setprecision", align 4
  %3 = alloca i32, align 4
  store i32 %0, ptr %3, align 4, !tbaa !8
  %4 = getelementptr inbounds nuw %"struct.std::_Setprecision", ptr %2, i32 0, i32 0
  %5 = load i32, ptr %3, align 4, !tbaa !8
  store i32 %5, ptr %4, align 4, !tbaa !205
  %6 = getelementptr inbounds nuw %"struct.std::_Setprecision", ptr %2, i32 0, i32 0
  %7 = load i32, ptr %6, align 4
  ret i32 %7
}

; Function Attrs: mustprogress nounwind uwtable
define linkonce_odr hidden noundef nonnull align 8 dereferenceable(128) ptr @_ZNK7testing8internal10scoped_ptrINSt7__cxx1118basic_stringstreamIcSt11char_traitsIcESaIcEEEEdeEv(ptr noundef nonnull align 8 dereferenceable(8) %0) #7 comdat align 2 {
  %2 = alloca ptr, align 8
  store ptr %0, ptr %2, align 8, !tbaa !201
  %3 = load ptr, ptr %2, align 8
  %4 = getelementptr inbounds nuw %"class.testing::internal::scoped_ptr", ptr %3, i32 0, i32 0
  %5 = load ptr, ptr %4, align 8, !tbaa !203
  ret ptr %5
}

; Function Attrs: mustprogress nounwind uwtable
define linkonce_odr hidden void @_ZN7testing8internal10scoped_ptrINSt7__cxx1118basic_stringstreamIcSt11char_traitsIcESaIcEEEEC2EPS7_(ptr noundef nonnull align 8 dereferenceable(8) %0, ptr noundef %1) unnamed_addr #7 comdat align 2 {
  %3 = alloca ptr, align 8
  %4 = alloca ptr, align 8
  store ptr %0, ptr %3, align 8, !tbaa !201
  store ptr %1, ptr %4, align 8, !tbaa !199
  %5 = load ptr, ptr %3, align 8
  %6 = getelementptr inbounds nuw %"class.testing::internal::scoped_ptr", ptr %5, i32 0, i32 0
  %7 = load ptr, ptr %4, align 8, !tbaa !199
  store ptr %7, ptr %6, align 8, !tbaa !203
  ret void
}

; Function Attrs: mustprogress uwtable
define void @_ZN7testing7MessageC2Ev(ptr noundef nonnull align 8 dereferenceable(8) %0) unnamed_addr #6 align 2 personality ptr @__gxx_personality_v0 {
  %2 = alloca ptr, align 8
  %3 = alloca ptr, align 8
  %4 = alloca i32, align 4
  %5 = alloca %"struct.std::_Setprecision", align 4
  store ptr %0, ptr %2, align 8, !tbaa !52
  %6 = load ptr, ptr %2, align 8
  %7 = getelementptr inbounds nuw %"class.testing::Message", ptr %6, i32 0, i32 0
  %8 = call noalias noundef nonnull ptr @_Znwm(i64 noundef 392) #29
  invoke void @_ZNSt7__cxx1118basic_stringstreamIcSt11char_traitsIcESaIcEEC1Ev(ptr noundef nonnull align 8 dereferenceable(128) %8)
          to label %9 unwind label %21

9:                                                ; preds = %1
  call void @_ZN7testing8internal10scoped_ptrINSt7__cxx1118basic_stringstreamIcSt11char_traitsIcESaIcEEEEC2EPS7_(ptr noundef nonnull align 8 dereferenceable(8) %7, ptr noundef %8)
  %10 = getelementptr inbounds nuw %"class.testing::Message", ptr %6, i32 0, i32 0
  %11 = invoke noundef nonnull align 8 dereferenceable(128) ptr @_ZNK7testing8internal10scoped_ptrINSt7__cxx1118basic_stringstreamIcSt11char_traitsIcESaIcEEEEdeEv(ptr noundef nonnull align 8 dereferenceable(8) %10)
          to label %12 unwind label %25

12:                                               ; preds = %9
  %13 = getelementptr inbounds i8, ptr %11, i64 16
  %14 = invoke i32 @_ZSt12setprecisioni(i32 noundef 17)
          to label %15 unwind label %25

15:                                               ; preds = %12
  %16 = getelementptr inbounds nuw %"struct.std::_Setprecision", ptr %5, i32 0, i32 0
  store i32 %14, ptr %16, align 4
  %17 = getelementptr inbounds nuw %"struct.std::_Setprecision", ptr %5, i32 0, i32 0
  %18 = load i32, ptr %17, align 4
  %19 = invoke noundef nonnull align 8 dereferenceable(8) ptr @_ZStlsIcSt11char_traitsIcEERSt13basic_ostreamIT_T0_ES6_St13_Setprecision(ptr noundef nonnull align 8 dereferenceable(8) %13, i32 %18)
          to label %20 unwind label %25

20:                                               ; preds = %15
  ret void

21:                                               ; preds = %1
  %22 = landingpad { ptr, i32 }
          cleanup
  %23 = extractvalue { ptr, i32 } %22, 0
  store ptr %23, ptr %3, align 8
  %24 = extractvalue { ptr, i32 } %22, 1
  store i32 %24, ptr %4, align 4
  call void @_ZdlPv(ptr noundef %8) #30
  br label %29

25:                                               ; preds = %15, %12, %9
  %26 = landingpad { ptr, i32 }
          cleanup
  %27 = extractvalue { ptr, i32 } %26, 0
  store ptr %27, ptr %3, align 8
  %28 = extractvalue { ptr, i32 } %26, 1
  store i32 %28, ptr %4, align 4
  call void @_ZN7testing8internal10scoped_ptrINSt7__cxx1118basic_stringstreamIcSt11char_traitsIcESaIcEEEED2Ev(ptr noundef nonnull align 8 dereferenceable(8) %7) #3
  br label %29

29:                                               ; preds = %25, %21
  %30 = load ptr, ptr %3, align 8
  %31 = load i32, ptr %4, align 4
  %32 = insertvalue { ptr, i32 } poison, ptr %30, 0
  %33 = insertvalue { ptr, i32 } %32, i32 %31, 1
  resume { ptr, i32 } %33
}