; Function Attrs: mustprogress uwtable
define void @_ZN7testing7MessageC2Ev(ptr noundef nonnull writeonly align 8 captures(none) dereferenceable(8) %0) unnamed_addr #4 align 2 personality ptr @__gxx_personality_v0 {
  %2 = tail call noalias noundef nonnull dereferenceable(392) ptr @_Znwm(i64 noundef 392) #59
  invoke void @_ZNSt7__cxx1118basic_stringstreamIcSt11char_traitsIcESaIcEEC1Ev(ptr noundef nonnull align 8 dereferenceable(128) %2)
          to label %3 unwind label %10

3:                                                ; preds = %1
  store ptr %2, ptr %0, align 8, !tbaa !20
  %4 = getelementptr inbounds nuw i8, ptr %2, i64 16
  %5 = load ptr, ptr %4, align 8, !tbaa !23
  %6 = getelementptr i8, ptr %5, i64 -24
  %7 = load i64, ptr %6, align 8
  %8 = getelementptr inbounds i8, ptr %4, i64 %7
  %9 = getelementptr inbounds nuw i8, ptr %8, i64 8
  store i64 17, ptr %9, align 8, !tbaa !261
  ret void

10:                                               ; preds = %1
  %11 = landingpad { ptr, i32 }
          cleanup
  tail call void @_ZdlPv(ptr noundef nonnull %2) #57
  resume { ptr, i32 } %11
}